target datalayout = "e-m:e-p270:32:32-p271:32:32-p272:64:64-i64:64-i128:128-f80:128-n8:16:32:64-S128"
target triple = "x86_64-pc-linux-gnu"

%struct._zend_executor_globals = type { %struct._zval_struct, %struct._zval_struct, [32 x ptr], ptr, ptr, %struct._zend_array, %struct._zend_array, ptr, i32, i8, %struct._zval_struct, i32, ptr, ptr, ptr, ptr, ptr, ptr, i64, ptr, ptr, i32, ptr, i32, i64, i32, i32, i32, i8, i8, %struct.zend_atomic_bool_s, %struct.zend_atomic_bool_s, ptr, i64, ptr, ptr, %struct._zend_array, %struct._zend_array, i32, i8, %struct._zval_struct, %struct._zval_struct, %struct._zend_stack, %struct._zend_stack, %struct._zend_stack, ptr, i32, i32, i64, ptr, ptr, ptr, %struct._zend_objects_store, %struct._zend_lazy_objects_store, ptr, ptr, ptr, [3 x %struct._zend_op], ptr, i8, i8, i64, i32, i32, ptr, [16 x %struct._HashTableIterator], ptr, %union._zend_function, %struct._zend_op, %struct._zend_array, i64, %struct.zend_get_gc_buffer, ptr, ptr, ptr, i64, i8, i32, ptr, ptr, i64, %struct._zend_call_stack, i64, i64, %struct._zend_strtod_state, [6 x ptr] }
%struct.zend_atomic_bool_s = type { i8 }
%struct._zval_struct = type { %union._zend_value, %union.anon, %union.anon.2 }
%union._zend_value = type { i64 }
%union.anon = type { i32 }
%union.anon.2 = type { i32 }
%struct._zend_stack = type { i32, i32, i32, ptr }
%struct._zend_objects_store = type { ptr, i32, i32, i32 }
%struct._zend_lazy_objects_store = type { %struct._zend_array }
%struct._HashTableIterator = type { ptr, i32, i32 }
%union._zend_function = type { %struct._zend_op_array }
%struct._zend_op_array = type { i8, [3 x i8], i32, ptr, ptr, ptr, i32, i32, ptr, ptr, ptr, ptr, i32, ptr, i32, i32, i32, ptr, ptr, ptr, ptr, ptr, i32, i32, ptr, ptr, ptr, i32, i32, i32, i32, ptr, ptr, [6 x ptr] }
%struct._zend_op = type { ptr, %union._znode_op, %union._znode_op, %union._znode_op, i32, i32, i8, i8, i8, i8 }
%union._znode_op = type { i32 }
%struct._zend_array = type { %struct._zend_refcounted_h, %union.anon.4, i32, %union.anon.6, i32, i32, i32, i32, i64, ptr }
%struct._zend_refcounted_h = type { i32, %union.anon.3 }
%union.anon.3 = type { i32 }
%union.anon.4 = type { i32 }
%union.anon.6 = type { ptr }
%struct.zend_get_gc_buffer = type { ptr, ptr, ptr }
%struct._zend_call_stack = type { ptr, i64 }
%struct._zend_strtod_state = type { [8 x ptr], ptr, ptr }
%struct.php_libxml_document_handlers = type { ptr, ptr, ptr, ptr }
%struct._xmlDoc = type { ptr, i32, ptr, ptr, ptr, ptr, ptr, ptr, ptr, i32, i32, ptr, ptr, ptr, ptr, ptr, ptr, ptr, ptr, i32, ptr, ptr, i32, i32 }
%struct._zend_execute_data = type { ptr, ptr, ptr, ptr, %struct._zval_struct, ptr, ptr, ptr, ptr }
%struct._dom_object = type { ptr, ptr, ptr, %struct._zend_object }
%struct._zend_object = type { %struct._zend_refcounted_h, i32, i32, ptr, ptr, ptr, [1 x %struct._zval_struct] }
%struct._php_libxml_ref_obj = type { ptr, ptr, %struct.php_libxml_cache_tag, ptr, ptr, i32, i16 }
%struct.php_libxml_cache_tag = type { i64 }

@.str = private unnamed_addr constant [6 x i8] c"UTF-8\00", align 1
@.str.1 = private unnamed_addr constant [4 x i8] c"|sp\00", align 1
@executor_globals = external global %struct._zend_executor_globals, align 8
@.str.2 = private unnamed_addr constant [33 x i8] c"is not a valid document encoding\00", align 1
@dom_xml_document_class_entry = external global ptr, align 8
@php_new_dom_default_document_handlers = internal constant %struct.php_libxml_document_handlers { ptr @php_new_dom_dump_node_to_str, ptr @php_new_dom_dump_doc_to_str, ptr @php_new_dom_dump_node_to_file, ptr @php_new_dom_dump_doc_to_file }, align 8

; Function Attrs: nounwind uwtable
define hidden void @dom_set_xml_class(ptr noundef %0) #0 {
  %2 = alloca ptr, align 8
  store ptr %0, ptr %2, align 8, !tbaa !82
  %3 = load ptr, ptr %2, align 8, !tbaa !82
  %4 = getelementptr inbounds nuw %struct._php_libxml_ref_obj, ptr %3, i32 0, i32 6
  %5 = load i16, ptr %4, align 4
  %6 = and i16 %5, -256
  %7 = or i16 %6, 2
  store i16 %7, ptr %4, align 4
  %8 = load ptr, ptr %2, align 8, !tbaa !82
  %9 = getelementptr inbounds nuw %struct._php_libxml_ref_obj, ptr %8, i32 0, i32 4
  store ptr @php_new_dom_default_document_handlers, ptr %9, align 8, !tbaa !83
  ret void
}

; Function Attrs: nounwind uwtable
define hidden void @zim_Dom_XMLDocument_createEmpty(ptr noundef %0, ptr noundef %1) #0 {
  %3 = alloca ptr, align 8
  %4 = alloca ptr, align 8
  %5 = alloca ptr, align 8
  %6 = alloca i64, align 8
  %7 = alloca ptr, align 8
  %8 = alloca i64, align 8
  %9 = alloca i32, align 4
  %10 = alloca ptr, align 8
  %11 = alloca ptr, align 8
  %12 = alloca ptr, align 8
  store ptr %0, ptr %3, align 8, !tbaa !27
  store ptr %1, ptr %4, align 8, !tbaa !29
  call void @llvm.lifetime.start.p0(i64 8, ptr %5) #14
  store ptr null, ptr %5, align 8, !tbaa !31
  call void @llvm.lifetime.start.p0(i64 8, ptr %6) #14
  store i64 5, ptr %6, align 8, !tbaa !32
  call void @llvm.lifetime.start.p0(i64 8, ptr %7) #14
  store ptr @.str, ptr %7, align 8, !tbaa !31
  call void @llvm.lifetime.start.p0(i64 8, ptr %8) #14
  %13 = load ptr, ptr %3, align 8, !tbaa !27
  %14 = getelementptr inbounds nuw %struct._zend_execute_data, ptr %13, i32 0, i32 4
  %15 = getelementptr inbounds nuw %struct._zval_struct, ptr %14, i32 0, i32 2
  %16 = load i32, ptr %15, align 4, !tbaa !34
  %17 = call i32 (i32, ptr, ...) @zend_parse_parameters(i32 noundef %16, ptr noundef @.str.1, ptr noundef %5, ptr noundef %8, ptr noundef %7, ptr noundef %6)
  %18 = icmp eq i32 %17, -1
  br i1 %18, label %19, label %25

19:                                               ; preds = %2
  br label %20

20:                                               ; preds = %19
  %21 = load ptr, ptr getelementptr inbounds nuw (%struct._zend_executor_globals, ptr @executor_globals, i32 0, i32 54), align 8, !tbaa !35
  %22 = icmp ne ptr %21, null
  call void @llvm.assume(i1 %22)
  store i32 1, ptr %9, align 4
  br label %77

23:                                               ; No predecessors!
  br label %24

24:                                               ; preds = %23
  br label %25

25:                                               ; preds = %24, %2
  call void @llvm.lifetime.start.p0(i64 8, ptr %10) #14
  %26 = load ptr, ptr %7, align 8, !tbaa !31
  %27 = call ptr @xmlFindCharEncodingHandler(ptr noundef %26)
  store ptr %27, ptr %10, align 8, !tbaa !65
  %28 = load ptr, ptr %10, align 8, !tbaa !65
  %29 = icmp ne ptr %28, null
  br i1 %29, label %30, label %33

30:                                               ; preds = %25
  %31 = load ptr, ptr %10, align 8, !tbaa !65
  %32 = call i32 @xmlCharEncCloseFunc(ptr noundef %31)
  br label %39

33:                                               ; preds = %25
  call void (i32, ptr, ...) @zend_argument_value_error(i32 noundef 2, ptr noundef @.str.2)
  br label %34

34:                                               ; preds = %33
  %35 = load ptr, ptr getelementptr inbounds nuw (%struct._zend_executor_globals, ptr @executor_globals, i32 0, i32 54), align 8, !tbaa !35
  %36 = icmp ne ptr %35, null
  call void @llvm.assume(i1 %36)
  store i32 1, ptr %9, align 4
  br label %76

37:                                               ; No predecessors!
  br label %38

38:                                               ; preds = %37
  br label %39

39:                                               ; preds = %38, %30
  call void @llvm.lifetime.start.p0(i64 8, ptr %11) #14
  %40 = load ptr, ptr %5, align 8, !tbaa !31
  %41 = call ptr @xmlNewDoc(ptr noundef %40)
  store ptr %41, ptr %11, align 8, !tbaa !9
  %42 = load ptr, ptr %11, align 8, !tbaa !9
  %43 = icmp eq ptr %42, null
  %44 = xor i1 %43, true
  %45 = xor i1 %44, true
  %46 = zext i1 %45 to i32
  %47 = sext i32 %46 to i64
  %48 = call i64 @llvm.expect.i64(i64 %47, i64 0)
  %49 = icmp ne i64 %48, 0
  br i1 %49, label %50, label %51

50:                                               ; preds = %39
  br label %69

51:                                               ; preds = %39
  %52 = load ptr, ptr %7, align 8, !tbaa !31
  %53 = call ptr @xmlStrdup(ptr noundef %52)
  %54 = load ptr, ptr %11, align 8, !tbaa !9
  %55 = getelementptr inbounds nuw %struct._xmlDoc, ptr %54, i32 0, i32 15
  store ptr %53, ptr %55, align 8, !tbaa !67
  %56 = load ptr, ptr %4, align 8, !tbaa !29
  %57 = load ptr, ptr @dom_xml_document_class_entry, align 8, !tbaa !68
  %58 = load ptr, ptr %11, align 8, !tbaa !9
  %59 = call ptr @php_dom_instantiate_object_helper(ptr noundef %56, ptr noundef %57, ptr noundef %58, ptr noundef null)
  store ptr %59, ptr %12, align 8, !tbaa !69
  %60 = load ptr, ptr %12, align 8, !tbaa !69
  %61 = getelementptr inbounds nuw %struct._dom_object, ptr %60, i32 0, i32 1
  %62 = load ptr, ptr %61, align 8, !tbaa !71
  call void @dom_set_xml_class(ptr noundef %62)
  %63 = call ptr @php_dom_private_data_create()
  %64 = call ptr @php_dom_libxml_private_data_header(ptr noundef %63)
  %65 = load ptr, ptr %12, align 8, !tbaa !69
  %66 = getelementptr inbounds nuw %struct._dom_object, ptr %65, i32 0, i32 1
  %67 = load ptr, ptr %66, align 8, !tbaa !71
  %68 = getelementptr inbounds nuw %struct._php_libxml_ref_obj, ptr %67, i32 0, i32 3
  store ptr %64, ptr %68, align 8, !tbaa !76
  store i32 1, ptr %9, align 4
  br label %75

69:                                               ; preds = %50
  call void @php_dom_throw_error(i32 noundef 11, i1 noundef zeroext true)
  br label %70

70:                                               ; preds = %69
  %71 = load ptr, ptr getelementptr inbounds nuw (%struct._zend_executor_globals, ptr @executor_globals, i32 0, i32 54), align 8, !tbaa !35
  %72 = icmp ne ptr %71, null
  call void @llvm.assume(i1 %72)
  store i32 1, ptr %9, align 4
  br label %75

73:                                               ; No predecessors!
  br label %74

74:                                               ; preds = %73
  store i32 0, ptr %9, align 4
  br label %75

75:                                               ; preds = %74, %70, %51
  call void @llvm.lifetime.end.p0(i64 8, ptr %11) #14
  br label %76

76:                                               ; preds = %75, %34
  call void @llvm.lifetime.end.p0(i64 8, ptr %10) #14
  br label %77

77:                                               ; preds = %76, %20
  call void @llvm.lifetime.end.p0(i64 8, ptr %8) #14
  call void @llvm.lifetime.end.p0(i64 8, ptr %7) #14
  call void @llvm.lifetime.end.p0(i64 8, ptr %6) #14
  call void @llvm.lifetime.end.p0(i64 8, ptr %5) #14
  %78 = load i32, ptr %9, align 4
  switch i32 %78, label %80 [
    i32 0, label %79
    i32 1, label %79
  ]

79:                                               ; preds = %77, %77
  ret void

80:                                               ; preds = %77
  unreachable
}