; Function Attrs: nounwind uwtable
define hidden void @zim_Dom_XMLDocument_createEmpty(ptr noundef readonly captures(none) %0, ptr noundef %1) local_unnamed_addr #0 {
  %3 = alloca ptr, align 8
  %4 = alloca i64, align 8
  %5 = alloca ptr, align 8
  %6 = alloca i64, align 8
  call void @llvm.lifetime.start.p0(i64 8, ptr nonnull %3) #12
  store ptr null, ptr %3, align 8, !tbaa !23
  call void @llvm.lifetime.start.p0(i64 8, ptr nonnull %4) #12
  store i64 5, ptr %4, align 8, !tbaa !24
  call void @llvm.lifetime.start.p0(i64 8, ptr nonnull %5) #12
  store ptr @.str, ptr %5, align 8, !tbaa !23
  call void @llvm.lifetime.start.p0(i64 8, ptr nonnull %6) #12
  %7 = getelementptr inbounds nuw i8, ptr %0, i64 44
  %8 = load i32, ptr %7, align 4, !tbaa !26
  %9 = call i32 (i32, ptr, ...) @zend_parse_parameters(i32 noundef %8, ptr noundef nonnull @.str.1, ptr noundef nonnull %3, ptr noundef nonnull %6, ptr noundef nonnull %5, ptr noundef nonnull %4) #12
  %10 = icmp eq i32 %9, -1
  br i1 %10, label %11, label %14

11:                                               ; preds = %2
  %12 = load ptr, ptr getelementptr inbounds nuw (i8, ptr @executor_globals, i64 960), align 8, !tbaa !27
  %13 = icmp ne ptr %12, null
  call void @llvm.assume(i1 %13)
  br label %45

14:                                               ; preds = %2
  %15 = load ptr, ptr %5, align 8, !tbaa !23
  %16 = call ptr @xmlFindCharEncodingHandler(ptr noundef %15) #12
  %.not = icmp eq ptr %16, null
  br i1 %.not, label %22, label %17

17:                                               ; preds = %14
  %18 = call i32 @xmlCharEncCloseFunc(ptr noundef nonnull %16) #12
  %19 = load ptr, ptr %3, align 8, !tbaa !23
  %20 = call ptr @xmlNewDoc(ptr noundef %19) #12
  %21 = icmp eq ptr %20, null
  br i1 %21, label %42, label %25, !prof !59

22:                                               ; preds = %14
  call void (i32, ptr, ...) @zend_argument_value_error(i32 noundef 2, ptr noundef nonnull @.str.2) #12
  %23 = load ptr, ptr getelementptr inbounds nuw (i8, ptr @executor_globals, i64 960), align 8, !tbaa !27
  %24 = icmp ne ptr %23, null
  call void @llvm.assume(i1 %24)
  br label %45

25:                                               ; preds = %17
  %26 = load ptr, ptr %5, align 8, !tbaa !23
  %27 = call ptr @xmlStrdup(ptr noundef %26) #12
  %28 = getelementptr inbounds nuw i8, ptr %20, i64 112
  store ptr %27, ptr %28, align 8, !tbaa !60
  %29 = load ptr, ptr @dom_xml_document_class_entry, align 8, !tbaa !61
  %30 = call ptr @php_dom_instantiate_object_helper(ptr noundef %1, ptr noundef %29, ptr noundef nonnull %20, ptr noundef null) #12
  %31 = getelementptr inbounds nuw i8, ptr %30, i64 8
  %32 = load ptr, ptr %31, align 8, !tbaa !62
  %33 = getelementptr inbounds nuw i8, ptr %32, i64 44
  %34 = load i16, ptr %33, align 4
  %35 = and i16 %34, -256
  %36 = or disjoint i16 %35, 2
  store i16 %36, ptr %33, align 4
  %37 = getelementptr inbounds nuw i8, ptr %32, i64 32
  store ptr @php_new_dom_default_document_handlers, ptr %37, align 8, !tbaa !67
  %38 = call ptr @php_dom_private_data_create() #12
  %39 = call ptr @php_dom_libxml_private_data_header(ptr noundef %38) #12
  %40 = load ptr, ptr %31, align 8, !tbaa !62
  %41 = getelementptr inbounds nuw i8, ptr %40, i64 24
  store ptr %39, ptr %41, align 8, !tbaa !73
  br label %45

42:                                               ; preds = %17
  call void @php_dom_throw_error(i32 noundef 11, i1 noundef zeroext true) #12
  %43 = load ptr, ptr getelementptr inbounds nuw (i8, ptr @executor_globals, i64 960), align 8, !tbaa !27
  %44 = icmp ne ptr %43, null
  call void @llvm.assume(i1 %44)
  br label %45

45:                                               ; preds = %22, %42, %25, %11
  call void @llvm.lifetime.end.p0(i64 8, ptr nonnull %6) #12
  call void @llvm.lifetime.end.p0(i64 8, ptr nonnull %5) #12
  call void @llvm.lifetime.end.p0(i64 8, ptr nonnull %4) #12
  call void @llvm.lifetime.end.p0(i64 8, ptr nonnull %3) #12
  ret void
}